target datalayout = "e-m:e-p270:32:32-p271:32:32-p272:64:64-i64:64-i128:128-f80:128-n8:16:32:64-S128"
target triple = "x86_64-pc-linux-gnu"

%struct.GCRef = type { i64 }
%struct.CTState = type { ptr, i32, i32, ptr, ptr, ptr, %struct.CCallback, [128 x i16] }
%struct.CCallback = type { [8 x %union.FPRCBArg], [8 x i64], ptr, ptr, ptr, i32, i32, i32 }
%union.FPRCBArg = type { double }
%struct.CType = type { i32, i32, i16, i16, %struct.GCRef }

; Function Attrs: alwaysinline nounwind uwtable
define internal i32 @ctype_check(ptr noundef %0, i32 noundef %1) #3 {
  %3 = alloca ptr, align 8
  %4 = alloca i32, align 4
  store ptr %0, ptr %3, align 8, !tbaa !4
  store i32 %1, ptr %4, align 4, !tbaa !10
  %5 = load i32, ptr %4, align 4, !tbaa !10
  ret i32 %5
}

; Function Attrs: alwaysinline nounwind uwtable
define internal void @setintV(ptr noundef %0, i32 noundef %1) #3 {
  %3 = alloca ptr, align 8
  %4 = alloca i32, align 4
  store ptr %0, ptr %3, align 8, !tbaa !73
  store i32 %1, ptr %4, align 4, !tbaa !10
  %5 = load i32, ptr %4, align 4, !tbaa !10
  %6 = sitofp i32 %5 to double
  %7 = load ptr, ptr %3, align 8, !tbaa !73
  store double %6, ptr %7, align 8, !tbaa !54
  ret void
}

; Function Attrs: alwaysinline nounwind uwtable
define internal ptr @ctype_child(ptr noundef %0, ptr noundef %1) #3 {
  %3 = alloca ptr, align 8
  %4 = alloca ptr, align 8
  store ptr %0, ptr %3, align 8, !tbaa !4
  store ptr %1, ptr %4, align 8, !tbaa !60
  %5 = load ptr, ptr %3, align 8, !tbaa !4
  %6 = load ptr, ptr %4, align 8, !tbaa !60
  %7 = getelementptr inbounds nuw %struct.CType, ptr %6, i32 0, i32 0
  %8 = load i32, ptr %7, align 8, !tbaa !61
  %9 = and i32 %8, 65535
  %10 = call ptr @ctype_get(ptr noundef %5, i32 noundef %9)
  ret ptr %10
}

; Function Attrs: alwaysinline nounwind uwtable
define internal ptr @ctype_get(ptr noundef %0, i32 noundef %1) #3 {
  %3 = alloca ptr, align 8
  %4 = alloca i32, align 4
  store ptr %0, ptr %3, align 8, !tbaa !4
  store i32 %1, ptr %4, align 4, !tbaa !10
  %5 = load ptr, ptr %3, align 8, !tbaa !4
  %6 = getelementptr inbounds nuw %struct.CTState, ptr %5, i32 0, i32 0
  %7 = load ptr, ptr %6, align 8, !tbaa !86
  %8 = load ptr, ptr %3, align 8, !tbaa !4
  %9 = load i32, ptr %4, align 4, !tbaa !10
  %10 = call i32 @ctype_check(ptr noundef %8, i32 noundef %9)
  %11 = zext i32 %10 to i64
  %12 = getelementptr inbounds nuw %struct.CType, ptr %7, i64 %11
  ret ptr %12
}

; Function Attrs: nounwind uwtable
define internal void @cdata_getconst(ptr noundef %0, ptr noundef %1, ptr noundef %2) #0 {
  %4 = alloca ptr, align 8
  %5 = alloca ptr, align 8
  %6 = alloca ptr, align 8
  %7 = alloca ptr, align 8
  store ptr %0, ptr %4, align 8, !tbaa !4
  store ptr %1, ptr %5, align 8, !tbaa !73
  store ptr %2, ptr %6, align 8, !tbaa !60
  call void @llvm.lifetime.start.p0(i64 8, ptr %7) #6
  %8 = load ptr, ptr %4, align 8, !tbaa !4
  %9 = load ptr, ptr %6, align 8, !tbaa !60
  %10 = call ptr @ctype_child(ptr noundef %8, ptr noundef %9)
  store ptr %10, ptr %7, align 8, !tbaa !60
  %11 = load ptr, ptr %7, align 8, !tbaa !60
  %12 = getelementptr inbounds nuw %struct.CType, ptr %11, i32 0, i32 0
  %13 = load i32, ptr %12, align 8, !tbaa !61
  %14 = and i32 %13, 8388608
  %15 = icmp ne i32 %14, 0
  br i1 %15, label %16, label %27

16:                                               ; preds = %3
  %17 = load ptr, ptr %6, align 8, !tbaa !60
  %18 = getelementptr inbounds nuw %struct.CType, ptr %17, i32 0, i32 1
  %19 = load i32, ptr %18, align 4, !tbaa !63
  %20 = icmp slt i32 %19, 0
  br i1 %20, label %21, label %27

21:                                               ; preds = %16
  %22 = load ptr, ptr %6, align 8, !tbaa !60
  %23 = getelementptr inbounds nuw %struct.CType, ptr %22, i32 0, i32 1
  %24 = load i32, ptr %23, align 4, !tbaa !63
  %25 = uitofp i32 %24 to double
  %26 = load ptr, ptr %5, align 8, !tbaa !73
  store double %25, ptr %26, align 8, !tbaa !54
  br label %32

27:                                               ; preds = %16, %3
  %28 = load ptr, ptr %5, align 8, !tbaa !73
  %29 = load ptr, ptr %6, align 8, !tbaa !60
  %30 = getelementptr inbounds nuw %struct.CType, ptr %29, i32 0, i32 1
  %31 = load i32, ptr %30, align 4, !tbaa !63
  call void @setintV(ptr noundef %28, i32 noundef %31)
  br label %32

32:                                               ; preds = %27, %21
  call void @llvm.lifetime.end.p0(i64 8, ptr %7) #6
  ret void
}

; Function Attrs: nounwind uwtable
define hidden i32 @lj_cdata_get(ptr noundef %0, ptr noundef %1, ptr noundef %2, ptr noundef %3) #0 {
  %5 = alloca i32, align 4
  %6 = alloca ptr, align 8
  %7 = alloca ptr, align 8
  %8 = alloca ptr, align 8
  %9 = alloca ptr, align 8
  %10 = alloca i32, align 4
  %11 = alloca i32, align 4
  store ptr %0, ptr %6, align 8, !tbaa !4
  store ptr %1, ptr %7, align 8, !tbaa !60
  store ptr %2, ptr %8, align 8, !tbaa !73
  store ptr %3, ptr %9, align 8, !tbaa !30
  call void @llvm.lifetime.start.p0(i64 4, ptr %10) #6
  %12 = load ptr, ptr %7, align 8, !tbaa !60
  %13 = getelementptr inbounds nuw %struct.CType, ptr %12, i32 0, i32 0
  %14 = load i32, ptr %13, align 8, !tbaa !61
  %15 = lshr i32 %14, 28
  %16 = icmp eq i32 %15, 11
  br i1 %16, label %17, label %21

17:                                               ; preds = %4
  %18 = load ptr, ptr %6, align 8, !tbaa !4
  %19 = load ptr, ptr %8, align 8, !tbaa !73
  %20 = load ptr, ptr %7, align 8, !tbaa !60
  call void @cdata_getconst(ptr noundef %18, ptr noundef %19, ptr noundef %20)
  store i32 0, ptr %5, align 4
  store i32 1, ptr %11, align 4
  br label %75

21:                                               ; preds = %4
  %22 = load ptr, ptr %7, align 8, !tbaa !60
  %23 = getelementptr inbounds nuw %struct.CType, ptr %22, i32 0, i32 0
  %24 = load i32, ptr %23, align 8, !tbaa !61
  %25 = lshr i32 %24, 28
  %26 = icmp eq i32 %25, 10
  br i1 %26, label %27, label %33

27:                                               ; preds = %21
  %28 = load ptr, ptr %6, align 8, !tbaa !4
  %29 = load ptr, ptr %7, align 8, !tbaa !60
  %30 = load ptr, ptr %8, align 8, !tbaa !73
  %31 = load ptr, ptr %9, align 8, !tbaa !30
  %32 = call i32 @lj_cconv_tv_bf(ptr noundef %28, ptr noundef %29, ptr noundef %30, ptr noundef %31)
  store i32 %32, ptr %5, align 4
  store i32 1, ptr %11, align 4
  br label %75

33:                                               ; preds = %21
  br label %34

34:                                               ; preds = %33
  %35 = load ptr, ptr %7, align 8, !tbaa !60
  %36 = getelementptr inbounds nuw %struct.CType, ptr %35, i32 0, i32 0
  %37 = load i32, ptr %36, align 8, !tbaa !61
  %38 = and i32 %37, 65535
  store i32 %38, ptr %10, align 4, !tbaa !10
  %39 = load ptr, ptr %6, align 8, !tbaa !4
  %40 = load i32, ptr %10, align 4, !tbaa !10
  %41 = call ptr @ctype_get(ptr noundef %39, i32 noundef %40)
  store ptr %41, ptr %7, align 8, !tbaa !60
  %42 = load ptr, ptr %7, align 8, !tbaa !60
  %43 = getelementptr inbounds nuw %struct.CType, ptr %42, i32 0, i32 0
  %44 = load i32, ptr %43, align 8, !tbaa !61
  %45 = and i32 %44, -260046848
  %46 = icmp eq i32 %45, 545259520
  br i1 %46, label %47, label %57

47:                                               ; preds = %34
  %48 = load ptr, ptr %9, align 8, !tbaa !30
  %49 = load ptr, ptr %48, align 8, !tbaa !30
  store ptr %49, ptr %9, align 8, !tbaa !30
  %50 = load ptr, ptr %7, align 8, !tbaa !60
  %51 = getelementptr inbounds nuw %struct.CType, ptr %50, i32 0, i32 0
  %52 = load i32, ptr %51, align 8, !tbaa !61
  %53 = and i32 %52, 65535
  store i32 %53, ptr %10, align 4, !tbaa !10
  %54 = load ptr, ptr %6, align 8, !tbaa !4
  %55 = load i32, ptr %10, align 4, !tbaa !10
  %56 = call ptr @ctype_get(ptr noundef %54, i32 noundef %55)
  store ptr %56, ptr %7, align 8, !tbaa !60
  br label %57

57:                                               ; preds = %47, %34
  br label %58

58:                                               ; preds = %64, %57
  %59 = load ptr, ptr %7, align 8, !tbaa !60
  %60 = getelementptr inbounds nuw %struct.CType, ptr %59, i32 0, i32 0
  %61 = load i32, ptr %60, align 8, !tbaa !61
  %62 = lshr i32 %61, 28
  %63 = icmp eq i32 %62, 8
  br i1 %63, label %64, label %68

64:                                               ; preds = %58
  %65 = load ptr, ptr %6, align 8, !tbaa !4
  %66 = load ptr, ptr %7, align 8, !tbaa !60
  %67 = call ptr @ctype_child(ptr noundef %65, ptr noundef %66)
  store ptr %67, ptr %7, align 8, !tbaa !60
  br label %58, !llvm.loop !88

68:                                               ; preds = %58
  %69 = load ptr, ptr %6, align 8, !tbaa !4
  %70 = load ptr, ptr %7, align 8, !tbaa !60
  %71 = load i32, ptr %10, align 4, !tbaa !10
  %72 = load ptr, ptr %8, align 8, !tbaa !73
  %73 = load ptr, ptr %9, align 8, !tbaa !30
  %74 = call i32 @lj_cconv_tv_ct(ptr noundef %69, ptr noundef %70, i32 noundef %71, ptr noundef %72, ptr noundef %73)
  store i32 %74, ptr %5, align 4
  store i32 1, ptr %11, align 4
  br label %75

75:                                               ; preds = %68, %27, %17
  call void @llvm.lifetime.end.p0(i64 4, ptr %10) #6
  %76 = load i32, ptr %5, align 4
  ret i32 %76
}