; Function Attrs: nounwind uwtable
define hidden i32 @lj_cdata_get(ptr noundef %0, ptr noundef %1, ptr noundef %2, ptr noundef %3) local_unnamed_addr #0 {
  %5 = load i32, ptr %1, align 8, !tbaa !51
  %6 = lshr i32 %5, 28
  switch i32 %6, label %18 [
    i32 11, label %7
    i32 10, label %16
  ]

7:                                                ; preds = %4
  %.val = load ptr, ptr %0, align 8, !tbaa !50
  %8 = and i32 %5, 65535
  %9 = zext nneg i32 %8 to i64
  %10 = getelementptr inbounds nuw %struct.CType, ptr %.val, i64 %9
  %11 = load i32, ptr %10, align 8, !tbaa !51
  %12 = and i32 %11, 8388608
  %.not.i = icmp ne i32 %12, 0
  %.phi.trans.insert.i = getelementptr inbounds nuw i8, ptr %1, i64 4
  %.pre.i = load i32, ptr %.phi.trans.insert.i, align 4, !tbaa !55
  %13 = icmp slt i32 %.pre.i, 0
  %or.cond.i = select i1 %.not.i, i1 %13, i1 false
  %14 = uitofp i32 %.pre.i to double
  %15 = sitofp i32 %.pre.i to double
  %storemerge.i = select i1 %or.cond.i, double %14, double %15
  store double %storemerge.i, ptr %2, align 8, !tbaa !47
  br label %41

16:                                               ; preds = %4
  %17 = tail call i32 @lj_cconv_tv_bf(ptr noundef %0, ptr noundef nonnull %1, ptr noundef %2, ptr noundef %3) #4
  br label %41

18:                                               ; preds = %4
  %19 = and i32 %5, 65535
  %20 = load ptr, ptr %0, align 8, !tbaa !50
  %21 = zext nneg i32 %19 to i64
  %22 = getelementptr inbounds nuw %struct.CType, ptr %20, i64 %21
  %23 = load i32, ptr %22, align 8, !tbaa !51
  %24 = and i32 %23, -260046848
  %25 = icmp eq i32 %24, 545259520
  br i1 %25, label %26, label %31

26:                                               ; preds = %18
  %27 = load ptr, ptr %3, align 8, !tbaa !64
  %28 = and i32 %23, 65535
  %29 = zext nneg i32 %28 to i64
  %30 = getelementptr inbounds nuw %struct.CType, ptr %20, i64 %29
  %.pre = load i32, ptr %30, align 8, !tbaa !51
  br label %31

31:                                               ; preds = %26, %18
  %32 = phi i32 [ %.pre, %26 ], [ %23, %18 ]
  %.027 = phi ptr [ %30, %26 ], [ %22, %18 ]
  %.025 = phi ptr [ %27, %26 ], [ %3, %18 ]
  %.0 = phi i32 [ %28, %26 ], [ %19, %18 ]
  %33 = icmp slt i32 %32, -1879048192
  br i1 %33, label %.lr.ph, label %._crit_edge

.lr.ph:                                           ; preds = %31, %.lr.ph
  %34 = phi i32 [ %38, %.lr.ph ], [ %32, %31 ]
  %35 = and i32 %34, 65535
  %36 = zext nneg i32 %35 to i64
  %37 = getelementptr inbounds nuw %struct.CType, ptr %20, i64 %36
  %38 = load i32, ptr %37, align 8, !tbaa !51
  %39 = icmp slt i32 %38, -1879048192
  br i1 %39, label %.lr.ph, label %._crit_edge, !llvm.loop !70

._crit_edge:                                      ; preds = %.lr.ph, %31
  %.1.lcssa = phi ptr [ %.027, %31 ], [ %37, %.lr.ph ]
  %40 = tail call i32 @lj_cconv_tv_ct(ptr noundef nonnull %0, ptr noundef nonnull %.1.lcssa, i32 noundef %.0, ptr noundef %2, ptr noundef %.025) #4
  br label %41

41:                                               ; preds = %._crit_edge, %16, %7
  %.026 = phi i32 [ 0, %7 ], [ %17, %16 ], [ %40, %._crit_edge ]
  ret i32 %.026
}